; Function Attrs: mustprogress nofree norecurse nosync nounwind willreturn memory(read, inaccessiblemem: none) uwtable
define hidden ptr @evmap_io_get_fdinfo_(ptr noundef readonly captures(none) %0, i32 noundef %1) local_unnamed_addr #3 {
  %3 = load ptr, ptr %0, align 8
  %4 = sext i32 %1 to i64
  %5 = getelementptr inbounds ptr, ptr %3, i64 %4
  %6 = load ptr, ptr %5, align 8
  %.not = icmp eq ptr %6, null
  %7 = getelementptr inbounds nuw i8, ptr %6, i64 16
  %.0 = select i1 %.not, ptr null, ptr %7
  ret ptr %.0
}